; ModuleID = 'source-C-CXX/27/1332.c'
source_filename = "source-C-CXX/27/1332.c"
target datalayout = "e-m:e-p270:32:32-p271:32:32-p272:64:64-i64:64-f80:128-n8:16:32:64-S128"
target triple = "x86_64-pc-linux-gnu"

@.str = private unnamed_addr constant [4 x i8] c"%d,\00", align 1
@.str.1 = private unnamed_addr constant [3 x i8] c"%d\00", align 1

; Function Attrs: nounwind sspstrong uwtable
define dso_local i32 @main() local_unnamed_addr #0 {
  %1 = alloca [6000 x i8], align 16
  %2 = alloca [300 x i32], align 16
  %3 = getelementptr inbounds [6000 x i8], [6000 x i8]* %1, i64 0, i64 0
  call void @llvm.lifetime.start.p0i8(i64 6000, i8* nonnull %3) #4
  %4 = bitcast [300 x i32]* %2 to i8*
  call void @llvm.lifetime.start.p0i8(i64 1200, i8* nonnull %4) #4
  %5 = call i32 (i8*, ...) bitcast (i32 (...)* @gets to i32 (i8*, ...)*)(i8* nonnull %3) #4
  br label %6

6:                                                ; preds = %27, %0
  %7 = phi i64 [ %30, %27 ], [ 1, %0 ]
  %8 = phi i32 [ %28, %27 ], [ 0, %0 ]
  %9 = phi i32 [ %29, %27 ], [ 1, %0 ]
  %10 = getelementptr inbounds [6000 x i8], [6000 x i8]* %1, i64 0, i64 %7
  %11 = load i8, i8* %10, align 1, !tbaa !5
  switch i8 %11, label %16 [
    i8 0, label %12
    i8 32, label %27
  ]

12:                                               ; preds = %6
  %13 = icmp sgt i32 %8, 0
  br i1 %13, label %14, label %38

14:                                               ; preds = %12
  %15 = zext i32 %8 to i64
  br label %31

16:                                               ; preds = %6
  %17 = add nsw i64 %7, -1
  %18 = getelementptr inbounds [6000 x i8], [6000 x i8]* %1, i64 0, i64 %17
  %19 = load i8, i8* %18, align 1, !tbaa !5
  %20 = icmp eq i8 %19, 32
  br i1 %20, label %21, label %25

21:                                               ; preds = %16
  %22 = sext i32 %8 to i64
  %23 = getelementptr inbounds [300 x i32], [300 x i32]* %2, i64 0, i64 %22
  store i32 %9, i32* %23, align 4, !tbaa !8
  %24 = add nsw i32 %8, 1
  br label %27

25:                                               ; preds = %16
  %26 = add nsw i32 %9, 1
  br label %27

27:                                               ; preds = %6, %25, %21
  %28 = phi i32 [ %24, %21 ], [ %8, %25 ], [ %8, %6 ]
  %29 = phi i32 [ 1, %21 ], [ %26, %25 ], [ %9, %6 ]
  %30 = add nuw i64 %7, 1
  br label %6, !llvm.loop !10

31:                                               ; preds = %14, %31
  %32 = phi i64 [ 0, %14 ], [ %36, %31 ]
  %33 = getelementptr inbounds [300 x i32], [300 x i32]* %2, i64 0, i64 %32
  %34 = load i32, i32* %33, align 4, !tbaa !8
  %35 = call i32 (i8*, ...) @printf(i8* nonnull dereferenceable(1) getelementptr inbounds ([4 x i8], [4 x i8]* @.str, i64 0, i64 0), i32 %34)
  %36 = add nuw nsw i64 %32, 1
  %37 = icmp eq i64 %36, %15
  br i1 %37, label %38, label %31, !llvm.loop !12

38:                                               ; preds = %31, %12
  %39 = call i32 (i8*, ...) @printf(i8* nonnull dereferenceable(1) getelementptr inbounds ([3 x i8], [3 x i8]* @.str.1, i64 0, i64 0), i32 %9)
  call void @llvm.lifetime.end.p0i8(i64 1200, i8* nonnull %4) #4
  call void @llvm.lifetime.end.p0i8(i64 6000, i8* nonnull %3) #4
  ret i32 0
}

; Function Attrs: argmemonly mustprogress nofree nosync nounwind willreturn
declare void @llvm.lifetime.start.p0i8(i64 immarg, i8* nocapture) #1

declare i32 @gets(...) local_unnamed_addr #2

; Function Attrs: nofree nounwind
declare noundef i32 @printf(i8* nocapture noundef readonly, ...) local_unnamed_addr #3

; Function Attrs: argmemonly mustprogress nofree nosync nounwind willreturn
declare void @llvm.lifetime.end.p0i8(i64 immarg, i8* nocapture) #1


!llvm.module.flags = !{!0, !1, !2, !3}
!llvm.ident = !{!4}

!0 = !{i32 1, !"wchar_size", i32 4}
!1 = !{i32 7, !"PIC Level", i32 2}
!2 = !{i32 7, !"PIE Level", i32 2}
!3 = !{i32 7, !"uwtable", i32 1}
!4 = !{!"clang version 13.0.0"}
!5 = !{!6, !6, i64 0}
!6 = !{!"omnipotent char", !7, i64 0}
!7 = !{!"Simple C/C++ TBAA"}
!8 = !{!9, !9, i64 0}
!9 = !{!"int", !6, i64 0}
!10 = distinct !{!10, !11}
!11 = !{!"llvm.loop.mustprogress"}
!12 = distinct !{!12, !11}
